target datalayout = "e-m:e-p270:32:32-p271:32:32-p272:64:64-i64:64-i128:128-f80:128-n8:16:32:64-S128"
target triple = "x86_64-pc-linux-gnu"

%struct.jit_State = type { %struct.GCtrace, ptr, ptr, ptr, ptr, ptr, ptr, i32, i32, i32, i8, i8, %struct.IRType1, i8, %struct.FoldState, ptr, i32, i32, i32, i32, i32, i32, i32, [1 x i32], [5 x %union.TValue], [3 x %union.TValue], ptr, i32, i32, i32, i32, ptr, ptr, i32, i32, i8, ptr, i32, i32, i16, [101 x i16], [258 x i32], [15 x i32], [16 x ptr], [64 x %struct.HotPenalty], i32, [16 x %struct.BPropEntry], i32, %struct.ScEvEntry, ptr, i32, i32, i32, ptr, i32, i32, ptr, ptr, ptr, i64, i64, %union.TValue, ptr, i32, i32 }
%struct.GCtrace = type { %struct.GCRef, i8, i8, i16, i32, i32, %struct.GCRef, ptr, i32, i32, ptr, ptr, %struct.GCRef, %struct.MRef, i32, i32, ptr, i32, i16, i16, i16, i16, i16, i16, i16, i8, i8, i8, i8 }
%struct.GCRef = type { i64 }
%struct.MRef = type { i64 }
%struct.IRType1 = type { i8 }
%struct.FoldState = type { %union.IRIns, [2 x %union.IRIns], [2 x %union.IRIns] }
%union.IRIns = type { %struct.GCRef }
%struct.HotPenalty = type { %struct.MRef, i16, i16 }
%struct.BPropEntry = type { i16, i16, i32 }
%struct.ScEvEntry = type { %struct.MRef, i16, i16, i16, i16, %struct.IRType1, i8 }
%union.TValue = type { i64 }
%struct.anon.0 = type { i32, %struct.IRType1, i8, i8, i8 }
%struct.anon = type { i16, i16, i16, i16 }

; Function Attrs: alwaysinline nounwind uwtable
define internal i32 @lj_ir_nextins(ptr noundef %0) #6 {
  %2 = alloca ptr, align 8
  %3 = alloca i32, align 4
  store ptr %0, ptr %2, align 8, !tbaa !4
  call void @llvm.lifetime.start.p0(i64 4, ptr %3) #8
  %4 = load ptr, ptr %2, align 8, !tbaa !4
  %5 = getelementptr inbounds nuw %struct.jit_State, ptr %4, i32 0, i32 0
  %6 = getelementptr inbounds nuw %struct.GCtrace, ptr %5, i32 0, i32 4
  %7 = load i32, ptr %6, align 4, !tbaa !42
  store i32 %7, ptr %3, align 4, !tbaa !30
  %8 = load i32, ptr %3, align 4, !tbaa !30
  %9 = load ptr, ptr %2, align 8, !tbaa !4
  %10 = getelementptr inbounds nuw %struct.jit_State, ptr %9, i32 0, i32 27
  %11 = load i32, ptr %10, align 8, !tbaa !43
  %12 = icmp uge i32 %8, %11
  %13 = xor i1 %12, true
  %14 = xor i1 %13, true
  %15 = zext i1 %14 to i32
  %16 = sext i32 %15 to i64
  %17 = call i64 @llvm.expect.i64(i64 %16, i64 0)
  %18 = icmp ne i64 %17, 0
  br i1 %18, label %19, label %21

19:                                               ; preds = %1
  %20 = load ptr, ptr %2, align 8, !tbaa !4
  call void @lj_ir_growtop(ptr noundef %20)
  br label %21

21:                                               ; preds = %19, %1
  %22 = load i32, ptr %3, align 4, !tbaa !30
  %23 = add i32 %22, 1
  %24 = load ptr, ptr %2, align 8, !tbaa !4
  %25 = getelementptr inbounds nuw %struct.jit_State, ptr %24, i32 0, i32 0
  %26 = getelementptr inbounds nuw %struct.GCtrace, ptr %25, i32 0, i32 4
  store i32 %23, ptr %26, align 4, !tbaa !42
  %27 = load i32, ptr %3, align 4, !tbaa !30
  call void @llvm.lifetime.end.p0(i64 4, ptr %3) #8
  ret i32 %27
}

; Function Attrs: nounwind uwtable
define hidden i32 @lj_opt_cse(ptr noundef %0) #0 {
  %2 = alloca i32, align 4
  %3 = alloca ptr, align 8
  %4 = alloca i32, align 4
  %5 = alloca i32, align 4
  %6 = alloca i32, align 4
  %7 = alloca i32, align 4
  %8 = alloca i32, align 4
  %9 = alloca i32, align 4
  %10 = alloca ptr, align 8
  %11 = alloca %struct.IRType1, align 1
  store ptr %0, ptr %3, align 8, !tbaa !4
  call void @llvm.lifetime.start.p0(i64 4, ptr %4) #8
  %12 = load ptr, ptr %3, align 8, !tbaa !4
  %13 = getelementptr inbounds nuw %struct.jit_State, ptr %12, i32 0, i32 14
  %14 = getelementptr inbounds nuw %struct.FoldState, ptr %13, i32 0, i32 0
  %15 = getelementptr inbounds nuw %struct.anon, ptr %14, i32 0, i32 0
  %16 = load i16, ptr %15, align 8, !tbaa !29
  %17 = zext i16 %16 to i32
  %18 = load ptr, ptr %3, align 8, !tbaa !4
  %19 = getelementptr inbounds nuw %struct.jit_State, ptr %18, i32 0, i32 14
  %20 = getelementptr inbounds nuw %struct.FoldState, ptr %19, i32 0, i32 0
  %21 = getelementptr inbounds nuw %struct.anon, ptr %20, i32 0, i32 1
  %22 = load i16, ptr %21, align 2, !tbaa !29
  %23 = zext i16 %22 to i32
  %24 = shl i32 %23, 16
  %25 = add i32 %17, %24
  store i32 %25, ptr %4, align 4, !tbaa !30
  call void @llvm.lifetime.start.p0(i64 4, ptr %5) #8
  %26 = load ptr, ptr %3, align 8, !tbaa !4
  %27 = getelementptr inbounds nuw %struct.jit_State, ptr %26, i32 0, i32 14
  %28 = getelementptr inbounds nuw %struct.FoldState, ptr %27, i32 0, i32 0
  %29 = getelementptr inbounds nuw %struct.anon.0, ptr %28, i32 0, i32 2
  %30 = load i8, ptr %29, align 1, !tbaa !29
  %31 = zext i8 %30 to i32
  store i32 %31, ptr %5, align 4, !tbaa !30
  %32 = load ptr, ptr %3, align 8, !tbaa !4
  %33 = getelementptr inbounds nuw %struct.jit_State, ptr %32, i32 0, i32 7
  %34 = load i32, ptr %33, align 8, !tbaa !9
  %35 = and i32 %34, 131072
  %36 = icmp ne i32 %35, 0
  %37 = xor i1 %36, true
  %38 = xor i1 %37, true
  %39 = zext i1 %38 to i32
  %40 = sext i32 %39 to i64
  %41 = call i64 @llvm.expect.i64(i64 %40, i64 1)
  %42 = icmp ne i64 %41, 0
  br i1 %42, label %43, label %119

43:                                               ; preds = %1
  call void @llvm.lifetime.start.p0(i64 4, ptr %6) #8
  %44 = load ptr, ptr %3, align 8, !tbaa !4
  %45 = getelementptr inbounds nuw %struct.jit_State, ptr %44, i32 0, i32 40
  %46 = load i32, ptr %5, align 4, !tbaa !30
  %47 = zext i32 %46 to i64
  %48 = getelementptr inbounds nuw [101 x i16], ptr %45, i64 0, i64 %47
  %49 = load i16, ptr %48, align 2, !tbaa !35
  %50 = zext i16 %49 to i32
  store i32 %50, ptr %6, align 4, !tbaa !30
  call void @llvm.lifetime.start.p0(i64 4, ptr %7) #8
  %51 = load ptr, ptr %3, align 8, !tbaa !4
  %52 = getelementptr inbounds nuw %struct.jit_State, ptr %51, i32 0, i32 14
  %53 = getelementptr inbounds nuw %struct.FoldState, ptr %52, i32 0, i32 0
  %54 = getelementptr inbounds nuw %struct.anon, ptr %53, i32 0, i32 0
  %55 = load i16, ptr %54, align 8, !tbaa !29
  %56 = zext i16 %55 to i32
  store i32 %56, ptr %7, align 4, !tbaa !30
  %57 = load ptr, ptr %3, align 8, !tbaa !4
  %58 = getelementptr inbounds nuw %struct.jit_State, ptr %57, i32 0, i32 14
  %59 = getelementptr inbounds nuw %struct.FoldState, ptr %58, i32 0, i32 0
  %60 = getelementptr inbounds nuw %struct.anon, ptr %59, i32 0, i32 1
  %61 = load i16, ptr %60, align 2, !tbaa !29
  %62 = zext i16 %61 to i32
  %63 = load i32, ptr %7, align 4, !tbaa !30
  %64 = icmp ugt i32 %62, %63
  br i1 %64, label %65, label %72

65:                                               ; preds = %43
  %66 = load ptr, ptr %3, align 8, !tbaa !4
  %67 = getelementptr inbounds nuw %struct.jit_State, ptr %66, i32 0, i32 14
  %68 = getelementptr inbounds nuw %struct.FoldState, ptr %67, i32 0, i32 0
  %69 = getelementptr inbounds nuw %struct.anon, ptr %68, i32 0, i32 1
  %70 = load i16, ptr %69, align 2, !tbaa !29
  %71 = zext i16 %70 to i32
  store i32 %71, ptr %7, align 4, !tbaa !30
  br label %72

72:                                               ; preds = %65, %43
  br label %73

73:                                               ; preds = %104, %72
  %74 = load i32, ptr %6, align 4, !tbaa !30
  %75 = load i32, ptr %7, align 4, !tbaa !30
  %76 = icmp ugt i32 %74, %75
  br i1 %76, label %77, label %115

77:                                               ; preds = %73
  %78 = load ptr, ptr %3, align 8, !tbaa !4
  %79 = getelementptr inbounds nuw %struct.jit_State, ptr %78, i32 0, i32 0
  %80 = getelementptr inbounds nuw %struct.GCtrace, ptr %79, i32 0, i32 7
  %81 = load ptr, ptr %80, align 8, !tbaa !32
  %82 = load i32, ptr %6, align 4, !tbaa !30
  %83 = zext i32 %82 to i64
  %84 = getelementptr inbounds nuw %union.IRIns, ptr %81, i64 %83
  %85 = getelementptr inbounds nuw %struct.anon.0, ptr %84, i32 0, i32 0
  %86 = load i32, ptr %85, align 8, !tbaa !29
  %87 = load i32, ptr %4, align 4, !tbaa !30
  %88 = icmp eq i32 %86, %87
  br i1 %88, label %89, label %104

89:                                               ; preds = %77
  %90 = load i32, ptr %6, align 4, !tbaa !30
  %91 = load ptr, ptr %3, align 8, !tbaa !4
  %92 = getelementptr inbounds nuw %struct.jit_State, ptr %91, i32 0, i32 0
  %93 = getelementptr inbounds nuw %struct.GCtrace, ptr %92, i32 0, i32 7
  %94 = load ptr, ptr %93, align 8, !tbaa !32
  %95 = load i32, ptr %6, align 4, !tbaa !30
  %96 = zext i32 %95 to i64
  %97 = getelementptr inbounds nuw %union.IRIns, ptr %94, i64 %96
  %98 = getelementptr inbounds nuw %struct.anon.0, ptr %97, i32 0, i32 1
  %99 = getelementptr inbounds nuw %struct.IRType1, ptr %98, i32 0, i32 0
  %100 = load i8, ptr %99, align 4, !tbaa !29
  %101 = zext i8 %100 to i32
  %102 = shl i32 %101, 24
  %103 = add i32 %90, %102
  store i32 %103, ptr %2, align 4
  store i32 1, ptr %8, align 4
  br label %116

104:                                              ; preds = %77
  %105 = load ptr, ptr %3, align 8, !tbaa !4
  %106 = getelementptr inbounds nuw %struct.jit_State, ptr %105, i32 0, i32 0
  %107 = getelementptr inbounds nuw %struct.GCtrace, ptr %106, i32 0, i32 7
  %108 = load ptr, ptr %107, align 8, !tbaa !32
  %109 = load i32, ptr %6, align 4, !tbaa !30
  %110 = zext i32 %109 to i64
  %111 = getelementptr inbounds nuw %union.IRIns, ptr %108, i64 %110
  %112 = getelementptr inbounds nuw %struct.anon, ptr %111, i32 0, i32 3
  %113 = load i16, ptr %112, align 2, !tbaa !29
  %114 = zext i16 %113 to i32
  store i32 %114, ptr %6, align 4, !tbaa !30
  br label %73, !llvm.loop !36

115:                                              ; preds = %73
  store i32 0, ptr %8, align 4
  br label %116

116:                                              ; preds = %115, %89
  call void @llvm.lifetime.end.p0(i64 4, ptr %7) #8
  call void @llvm.lifetime.end.p0(i64 4, ptr %6) #8
  %117 = load i32, ptr %8, align 4
  switch i32 %117, label %180 [
    i32 0, label %118
  ]

118:                                              ; preds = %116
  br label %119

119:                                              ; preds = %118, %1
  call void @llvm.lifetime.start.p0(i64 4, ptr %9) #8
  %120 = load ptr, ptr %3, align 8, !tbaa !4
  %121 = call i32 @lj_ir_nextins(ptr noundef %120)
  store i32 %121, ptr %9, align 4, !tbaa !30
  call void @llvm.lifetime.start.p0(i64 8, ptr %10) #8
  %122 = load ptr, ptr %3, align 8, !tbaa !4
  %123 = getelementptr inbounds nuw %struct.jit_State, ptr %122, i32 0, i32 0
  %124 = getelementptr inbounds nuw %struct.GCtrace, ptr %123, i32 0, i32 7
  %125 = load ptr, ptr %124, align 8, !tbaa !32
  %126 = load i32, ptr %9, align 4, !tbaa !30
  %127 = zext i32 %126 to i64
  %128 = getelementptr inbounds nuw %union.IRIns, ptr %125, i64 %127
  store ptr %128, ptr %10, align 8, !tbaa !38
  %129 = load ptr, ptr %3, align 8, !tbaa !4
  %130 = getelementptr inbounds nuw %struct.jit_State, ptr %129, i32 0, i32 40
  %131 = load i32, ptr %5, align 4, !tbaa !30
  %132 = zext i32 %131 to i64
  %133 = getelementptr inbounds nuw [101 x i16], ptr %130, i64 0, i64 %132
  %134 = load i16, ptr %133, align 2, !tbaa !35
  %135 = load ptr, ptr %10, align 8, !tbaa !38
  %136 = getelementptr inbounds nuw %struct.anon, ptr %135, i32 0, i32 3
  store i16 %134, ptr %136, align 2, !tbaa !29
  %137 = load i32, ptr %4, align 4, !tbaa !30
  %138 = load ptr, ptr %10, align 8, !tbaa !38
  %139 = getelementptr inbounds nuw %struct.anon.0, ptr %138, i32 0, i32 0
  store i32 %137, ptr %139, align 8, !tbaa !29
  %140 = load i32, ptr %9, align 4, !tbaa !30
  %141 = trunc i32 %140 to i16
  %142 = load ptr, ptr %3, align 8, !tbaa !4
  %143 = getelementptr inbounds nuw %struct.jit_State, ptr %142, i32 0, i32 40
  %144 = load i32, ptr %5, align 4, !tbaa !30
  %145 = zext i32 %144 to i64
  %146 = getelementptr inbounds nuw [101 x i16], ptr %143, i64 0, i64 %145
  store i16 %141, ptr %146, align 2, !tbaa !35
  %147 = load ptr, ptr %3, align 8, !tbaa !4
  %148 = getelementptr inbounds nuw %struct.jit_State, ptr %147, i32 0, i32 14
  %149 = getelementptr inbounds nuw %struct.FoldState, ptr %148, i32 0, i32 0
  %150 = getelementptr inbounds nuw %struct.anon.0, ptr %149, i32 0, i32 2
  %151 = load i8, ptr %150, align 1, !tbaa !29
  %152 = load ptr, ptr %10, align 8, !tbaa !38
  %153 = getelementptr inbounds nuw %struct.anon.0, ptr %152, i32 0, i32 2
  store i8 %151, ptr %153, align 1, !tbaa !29
  %154 = load ptr, ptr %3, align 8, !tbaa !4
  %155 = getelementptr inbounds nuw %struct.jit_State, ptr %154, i32 0, i32 14
  %156 = getelementptr inbounds nuw %struct.FoldState, ptr %155, i32 0, i32 0
  %157 = getelementptr inbounds nuw %struct.anon.0, ptr %156, i32 0, i32 1
  %158 = getelementptr inbounds nuw %struct.IRType1, ptr %157, i32 0, i32 0
  %159 = load i8, ptr %158, align 4, !tbaa !29
  %160 = zext i8 %159 to i32
  %161 = load ptr, ptr %3, align 8, !tbaa !4
  %162 = getelementptr inbounds nuw %struct.jit_State, ptr %161, i32 0, i32 12
  %163 = getelementptr inbounds nuw %struct.IRType1, ptr %162, i32 0, i32 0
  %164 = load i8, ptr %163, align 2, !tbaa !39
  %165 = zext i8 %164 to i32
  %166 = or i32 %165, %160
  %167 = trunc i32 %166 to i8
  store i8 %167, ptr %163, align 2, !tbaa !39
  %168 = load i32, ptr %9, align 4, !tbaa !30
  %169 = load ptr, ptr %10, align 8, !tbaa !38
  %170 = getelementptr inbounds nuw %struct.anon.0, ptr %169, i32 0, i32 1
  %171 = load ptr, ptr %3, align 8, !tbaa !4
  %172 = getelementptr inbounds nuw %struct.jit_State, ptr %171, i32 0, i32 14
  %173 = getelementptr inbounds nuw %struct.FoldState, ptr %172, i32 0, i32 0
  %174 = getelementptr inbounds nuw %struct.anon.0, ptr %173, i32 0, i32 1
  call void @llvm.memcpy.p0.p0.i64(ptr align 4 %170, ptr align 4 %174, i64 1, i1 false), !tbaa.struct !40
  call void @llvm.memcpy.p0.p0.i64(ptr align 1 %11, ptr align 4 %170, i64 1, i1 false), !tbaa.struct !40
  %175 = getelementptr inbounds nuw %struct.IRType1, ptr %11, i32 0, i32 0
  %176 = load i8, ptr %175, align 1, !tbaa !41
  %177 = zext i8 %176 to i32
  %178 = shl i32 %177, 24
  %179 = add i32 %168, %178
  store i32 %179, ptr %2, align 4
  store i32 1, ptr %8, align 4
  call void @llvm.lifetime.end.p0(i64 8, ptr %10) #8
  call void @llvm.lifetime.end.p0(i64 4, ptr %9) #8
  br label %180

180:                                              ; preds = %119, %116
  call void @llvm.lifetime.end.p0(i64 4, ptr %5) #8
  call void @llvm.lifetime.end.p0(i64 4, ptr %4) #8
  %181 = load i32, ptr %2, align 4
  ret i32 %181
}