; Function Attrs: nounwind uwtable
define hidden i32 @lj_opt_cse(ptr noundef %0) #0 {
  %2 = getelementptr inbounds nuw i8, ptr %0, i64 184
  %3 = load i16, ptr %2, align 8, !tbaa !28
  %4 = zext i16 %3 to i32
  %5 = getelementptr inbounds nuw i8, ptr %0, i64 186
  %6 = load i16, ptr %5, align 2, !tbaa !28
  %7 = zext i16 %6 to i32
  %8 = shl nuw i32 %7, 16
  %9 = or disjoint i32 %8, %4
  %10 = getelementptr inbounds nuw i8, ptr %0, i64 189
  %11 = load i8, ptr %10, align 1, !tbaa !28
  %12 = getelementptr inbounds nuw i8, ptr %0, i64 168
  %13 = load i32, ptr %12, align 8, !tbaa !4
  %14 = and i32 %13, 131072
  %.not = icmp eq i32 %14, 0
  br i1 %.not, label %.loopexit, label %15, !prof !33

15:                                               ; preds = %1
  %16 = getelementptr inbounds nuw i8, ptr %0, i64 402
  %17 = zext i8 %11 to i64
  %18 = getelementptr inbounds nuw [101 x i16], ptr %16, i64 0, i64 %17
  %spec.select46 = tail call i16 @llvm.umax.i16(i16 %6, i16 %3)
  %.039.in48 = load i16, ptr %18, align 2, !tbaa !28
  %.not4449 = icmp ult i16 %spec.select46, %.039.in48
  br i1 %.not4449, label %.lr.ph, label %.loopexit

.lr.ph:                                           ; preds = %15
  %19 = getelementptr inbounds nuw i8, ptr %0, i64 32
  %20 = load ptr, ptr %19, align 8, !tbaa !30
  br label %21

21:                                               ; preds = %.lr.ph, %31
  %.039.in50 = phi i16 [ %.039.in48, %.lr.ph ], [ %.039.in, %31 ]
  %22 = zext i16 %.039.in50 to i64
  %23 = getelementptr inbounds nuw %union.IRIns, ptr %20, i64 %22
  %24 = load i32, ptr %23, align 8, !tbaa !28
  %25 = icmp eq i32 %24, %9
  br i1 %25, label %.thread, label %31

.thread:                                          ; preds = %21
  %.039.le = zext i16 %.039.in50 to i32
  %26 = getelementptr inbounds nuw i8, ptr %23, i64 4
  %27 = load i8, ptr %26, align 4, !tbaa !28
  %28 = zext i8 %27 to i32
  %29 = shl nuw i32 %28, 24
  %30 = or disjoint i32 %29, %.039.le
  br label %60

31:                                               ; preds = %21
  %32 = getelementptr inbounds nuw i8, ptr %23, i64 6
  %.039.in = load i16, ptr %32, align 2, !tbaa !28
  %.not44 = icmp ult i16 %spec.select46, %.039.in
  br i1 %.not44, label %21, label %.loopexit, !llvm.loop !34

.loopexit:                                        ; preds = %31, %15, %1
  %33 = getelementptr inbounds nuw i8, ptr %0, i64 12
  %34 = load i32, ptr %33, align 4, !tbaa !36
  %35 = getelementptr inbounds nuw i8, ptr %0, i64 336
  %36 = load i32, ptr %35, align 8, !tbaa !37
  %.not.i = icmp ult i32 %34, %36
  br i1 %.not.i, label %lj_ir_nextins.exit, label %37, !prof !27

37:                                               ; preds = %.loopexit
  tail call void @lj_ir_growtop(ptr noundef nonnull %0) #12
  br label %lj_ir_nextins.exit

lj_ir_nextins.exit:                               ; preds = %.loopexit, %37
  %38 = add i32 %34, 1
  store i32 %38, ptr %33, align 4, !tbaa !36
  %39 = getelementptr inbounds nuw i8, ptr %0, i64 32
  %40 = load ptr, ptr %39, align 8, !tbaa !30
  %41 = zext i32 %34 to i64
  %42 = getelementptr inbounds nuw %union.IRIns, ptr %40, i64 %41
  %43 = getelementptr inbounds nuw i8, ptr %0, i64 402
  %44 = zext i8 %11 to i64
  %45 = getelementptr inbounds nuw [101 x i16], ptr %43, i64 0, i64 %44
  %46 = load i16, ptr %45, align 2, !tbaa !38
  %47 = getelementptr inbounds nuw i8, ptr %42, i64 6
  store i16 %46, ptr %47, align 2, !tbaa !28
  store i32 %9, ptr %42, align 8, !tbaa !28
  %48 = trunc i32 %34 to i16
  store i16 %48, ptr %45, align 2, !tbaa !38
  %49 = load i8, ptr %10, align 1, !tbaa !28
  %50 = getelementptr inbounds nuw i8, ptr %42, i64 5
  store i8 %49, ptr %50, align 1, !tbaa !28
  %51 = getelementptr inbounds nuw i8, ptr %0, i64 188
  %52 = load i8, ptr %51, align 4, !tbaa !28
  %53 = getelementptr inbounds nuw i8, ptr %0, i64 182
  %54 = load i8, ptr %53, align 2, !tbaa !39
  %55 = or i8 %54, %52
  store i8 %55, ptr %53, align 2, !tbaa !39
  %56 = getelementptr inbounds nuw i8, ptr %42, i64 4
  store i8 %52, ptr %56, align 4, !tbaa !28
  %57 = zext i8 %52 to i32
  %58 = shl nuw i32 %57, 24
  %59 = add i32 %58, %34
  br label %60

60:                                               ; preds = %.thread, %lj_ir_nextins.exit
  %.1 = phi i32 [ %59, %lj_ir_nextins.exit ], [ %30, %.thread ]
  ret i32 %.1
}